(dp0
(F-0.27
F-0.135
I30
tp1
I13
s(F-0.135
F0.135
I0
tp2
I4
s(F0.135
F0.135
I30
tp3
I20
s(F-0.405
F0.0
I0
tp4
I0
s(F-0.135
F-0.135
I30
tp5
I14
s(F0.135
F0.135
I60
tp6
I29
s(F-0.135
F-0.27
I60
tp7
I22
s(F-0.135
F0.0
I30
tp8
I15
s(F-0.135
F-0.135
I0
tp9
I2
s(F0.0
F0.135
I0
tp10
I7
s(F0.135
F-0.135
I0
tp11
I8
s(F0.0
F0.135
I30
tp12
I18
s(F0.135
F0.27
I60
tp13
I30
s(F0.0
F-0.135
I60
tp14
I25
s(F0.27
F0.135
I30
tp15
I21
s(F0.135
F0.135
I0
tp16
I10
s(F0.135
F0.0
I60
tp17
I28
s(F0.0
F-0.135
I30
tp18
I16
s(F0.0
F-0.135
I0
tp19
I5
s(F0.0
F0.135
I60
tp20
I27
s(F0.0
F0.0
I30
tp21
I17
s(F0.0
F0.0
I0
tp22
I6
s(F0.27
F0.0
I0
tp23
I11
s(F0.135
F0.0
I30
tp24
I19
s(F0.405
F0.0
I0
tp25
I12
s(F-0.135
F0.0
I0
tp26
I3
s(F0.135
F0.0
I0
tp27
I9
s(F0.0
F0.0
I60
tp28
I26
s(F-0.135
F0.0
I60
tp29
I24
s(F-0.27
F0.0
I0
tp30
I1
s(F-0.135
F-0.135
I60
tp31
I23
s.