(lp0
I7
aI19
aI27
aI13
aI11
aI8
aI25
aI29
aI41
aI42
aI38
aI20
aI26
aI12
aI10
aI39
aI16
aI49
aI45
aI44
aI36
aI50
aI48
aI21
aI47
aI23
aI24
aI4
aI46
aI51
aI37
aI15
aI40
aI6
aI17
aI43
aI30
aI3
aI22
aI33
aI5
aI14
aI31
aI32
aI9
aI35
aI0
aI28
aI18
aI34
aI1
aI2
a.