(lp0
I0
aI9
aI16
aI3
aI23
aI29
aI20
aI30
aI5
aI8
aI32
aI24
aI26
aI21
aI46
aI41
aI28
aI31
aI6
aI2
aI48
aI44
aI12
aI27
aI38
aI50
aI11
aI25
aI49
aI1
aI4
aI37
aI15
aI40
aI13
aI10
aI34
aI42
aI35
aI14
aI45
aI18
aI39
aI43
aI36
aI7
aI47
aI33
aI19
aI22
aI17
a.