(lp0
I86
aI47
aI17
aI39
aI38
aI87
aI33
aI95
aI68
aI25
aI31
aI70
aI64
aI51
aI44
aI49
aI88
aI85
aI69
aI4
aI72
aI100
aI36
aI3
aI7
aI71
aI16
aI99
aI67
aI37
aI19
aI12
aI103
aI15
aI78
aI80
aI73
aI20
aI101
aI83
aI41
aI96
aI66
aI45
aI11
aI56
aI2
aI54
aI13
aI92
aI34
aI59
aI94
aI50
aI102
aI26
aI23
aI53
aI6
aI5
aI21
aI76
aI43
aI40
aI0
aI97
aI55
aI27
aI79
aI98
aI57
aI42
aI24
aI10
aI65
aI93
aI8
aI81
aI30
aI91
aI61
aI82
aI52
aI22
aI63
aI9
aI77
aI75
aI62
aI35
aI89
aI46
aI29
aI1
aI74
aI32
aI14
aI18
aI60
aI58
aI90
aI48
aI28
aI84
a.