(dp0
(F0.125
F0.15
F-20.0
F-0.125
F-0.15
F20.0
tp1
(lp2
(I1
I0
F0.0
tp3
a(I0
I0
F0.0
tp4
a(I0
I-1
F0.0
tp5
a(I-1
I0
F0.0
tp6
a(I-2
I0
F0.0
tp7
a(I0
I1
F0.0
tp8
a(I2
I0
F0.0
tp9
as(F-0.188
F0.085
F80.0
F0.188
F-0.085
F40.0
tp10
(lp11
(I1
I1
F60.0
tp12
a(I1
I0
F60.0
tp13
a(I-1
I0
F60.0
tp14
a(I0
I1
F60.0
tp15
a(I0
I0
F60.0
tp16
as(F-0.119
F0.116
F22.5
F0.119
F-0.116
F37.5
tp17
(lp18
(I1
I1
F30.0
tp19
a(I-1
I0
F30.0
tp20
a(I1
I0
F30.0
tp21
a(I0
I-1
F30.0
tp22
a(I0
I0
F30.0
tp23
a(I0
I1
F30.0
tp24
as(F-0.083
F0.106
F75.0
F0.083
F-0.106
F45.0
tp25
(lp26
(I-1
I-1
F60.0
tp27
a(I0
I1
F60.0
tp28
a(I1
I2
F60.0
tp29
a(I1
I1
F60.0
tp30
a(I1
I0
F60.0
tp31
a(I-1
I0
F60.0
tp32
a(I0
I0
F60.0
tp33
as(F-0.137
F-0.037
F60.0
F0.137
F0.037
F60.0
tp34
(lp35
(I0
I-1
F60.0
tp36
a(I-1
I-1
F60.0
tp37
a(I1
I2
F60.0
tp38
a(I1
I1
F60.0
tp39
a(I0
I1
F60.0
tp40
a(I0
I0
F60.0
tp41
as(F-0.1
F0.1
F0.0
F0.1
F-0.1
F0.0
tp42
(lp43
(I1
I1
F0.0
tp44
a(I1
I0
F0.0
tp45
a(I-1
I-1
F0.0
tp46
a(I0
I0
F0.0
tp47
a(I-1
I0
F0.0
tp48
a(I-2
I0
F0.0
tp49
a(I2
I0
F0.0
tp50
as(F0.033
F0.192
F10.0
F-0.033
F-0.192
F50.0
tp51
(lp52
(I1
I1
F30.0
tp53
a(I-1
I0
F30.0
tp54
a(I1
I0
F30.0
tp55
a(I0
I0
F30.0
tp56
a(I-2
I-1
F30.0
tp57
a(I0
I1
F30.0
tp58
a(I-1
I-1
F30.0
tp59
as(F-0.078
F0.175
F17.5
F0.078
F-0.175
F42.5
tp60
(lp61
(I1
I1
F30.0
tp62
a(I-1
I0
F30.0
tp63
a(I1
I0
F30.0
tp64
a(I0
I-1
F30.0
tp65
a(I0
I0
F30.0
tp66
a(I-1
I-1
F30.0
tp67
a(I0
I1
F30.0
tp68
as(F0.02
F0.205
F20.0
F-0.02
F-0.205
F-20.0
tp69
(lp70
(I1
I1
F0.0
tp71
a(I1
I0
F0.0
tp72
a(I1
I-1
F0.0
tp73
a(I0
I0
F0.0
tp74
a(I0
I-1
F0.0
tp75
a(I-1
I0
F0.0
tp76
a(I0
I1
F0.0
tp77
as(F-0.143
F0.083
F47.5
F0.143
F-0.083
F72.5
tp78
(lp79
(I0
I-1
F60.0
tp80
a(I-1
I-1
F60.0
tp81
a(I0
I1
F60.0
tp82
a(I1
I1
F60.0
tp83
a(I1
I0
F60.0
tp84
a(I-1
I0
F60.0
tp85
a(I0
I0
F60.0
tp86
as(F-0.02
F0.19
F-12.5
F0.02
F-0.19
F12.5
tp87
(lp88
(I-1
I1
F0.0
tp89
a(I1
I0
F0.0
tp90
a(I1
I-1
F0.0
tp91
a(I-1
I-1
F0.0
tp92
a(I0
I0
F0.0
tp93
a(I0
I-1
F0.0
tp94
a(I-1
I0
F0.0
tp95
a(I0
I1
F0.0
tp96
as(F0.037
F0.137
F30.0
F-0.037
F-0.137
F30.0
tp97
(lp98
(I1
I1
F30.0
tp99
a(I-1
I0
F30.0
tp100
a(I1
I0
F30.0
tp101
a(I0
I0
F30.0
tp102
a(I2
I1
F30.0
tp103
a(I-1
I-1
F30.0
tp104
as(F-0.18
F-0.012
F40.0
F0.18
F0.012
F80.0
tp105
(lp106
(I0
I-1
F60.0
tp107
a(I-1
I-1
F60.0
tp108
a(I0
I1
F60.0
tp109
a(I1
I1
F60.0
tp110
a(I1
I0
F60.0
tp111
a(I-1
I0
F60.0
tp112
a(I0
I0
F60.0
tp113
as(F0.05
F0.15
F-15.0
F-0.05
F-0.15
F15.0
tp114
(lp115
(I-1
I1
F0.0
tp116
a(I-1
I0
F0.0
tp117
a(I1
I0
F0.0
tp118
a(I0
I0
F0.0
tp119
a(I0
I-1
F0.0
tp120
as(F0.05
F0.1
F0.0
F-0.05
F-0.1
F0.0
tp121
(lp122
(I-1
I1
F0.0
tp123
a(I1
I0
F0.0
tp124
a(I1
I-1
F0.0
tp125
a(I0
I0
F0.0
tp126
a(I0
I-1
F0.0
tp127
a(I-1
I0
F0.0
tp128
a(I0
I1
F0.0
tp129
as(F0.085
F0.115
F20.0
F-0.085
F-0.115
F-20.0
tp130
(lp131
(I1
I0
F0.0
tp132
a(I1
I-1
F0.0
tp133
a(I0
I0
F0.0
tp134
a(I-1
I0
F0.0
tp135
a(I0
I1
F0.0
tp136
a(I2
I0
F0.0
tp137
as(F-0.154
F0.027
F50.0
F0.154
F-0.027
F10.0
tp138
(lp139
(I1
I1
F30.0
tp140
a(I-1
I0
F30.0
tp141
a(I0
I-1
F30.0
tp142
a(I0
I0
F30.0
tp143
a(I2
I1
F30.0
tp144
a(I-1
I-1
F30.0
tp145
a(I0
I1
F30.0
tp146
as(F-0.0
F0.125
F0.0
F0.0
F-0.125
F0.0
tp147
(lp148
(I1
I0
F0.0
tp149
a(I-1
I0
F0.0
tp150
a(I0
I1
F0.0
tp151
a(I0
I0
F0.0
tp152
a(I0
I-1
F0.0
tp153
as(F-0.121
F0.041
F75.0
F0.121
F-0.041
F45.0
tp154
(lp155
(I0
I-1
F60.0
tp156
a(I1
I0
F60.0
tp157
a(I1
I1
F60.0
tp158
a(I0
I1
F60.0
tp159
a(I0
I0
F60.0
tp160
as(F-0.05
F0.125
F15.0
F0.05
F-0.125
F-15.0
tp161
(lp162
(I1
I1
F0.0
tp163
a(I1
I0
F0.0
tp164
a(I0
I0
F0.0
tp165
a(I0
I-1
F0.0
tp166
a(I-1
I0
F0.0
tp167
a(I2
I0
F0.0
tp168
as(F0.05
F0.125
F15.0
F-0.05
F-0.125
F-15.0
tp169
(lp170
(I1
I0
F0.0
tp171
a(I1
I-1
F0.0
tp172
a(I0
I0
F0.0
tp173
a(I-1
I0
F0.0
tp174
a(I0
I1
F0.0
tp175
a(I2
I0
F0.0
tp176
as(F-0.067
F0.183
F40.0
F0.067
F-0.183
F80.0
tp177
(lp178
(I0
I-1
F60.0
tp179
a(I-1
I-1
F60.0
tp180
a(I0
I1
F60.0
tp181
a(I1
I2
F60.0
tp182
a(I1
I1
F60.0
tp183
a(I1
I0
F60.0
tp184
a(I-1
I0
F60.0
tp185
a(I0
I0
F60.0
tp186
as(F0.02
F0.205
F-20.0
F-0.02
F-0.205
F20.0
tp187
(lp188
(I-1
I1
F0.0
tp189
a(I1
I1
F0.0
tp190
a(I1
I0
F0.0
tp191
a(I-1
I-1
F0.0
tp192
a(I0
I0
F0.0
tp193
a(I0
I-1
F0.0
tp194
a(I-1
I0
F0.0
tp195
a(I0
I1
F0.0
tp196
as(F-0.087
F0.05
F67.5
F0.087
F-0.05
F52.5
tp197
(lp198
(I0
I-1
F60.0
tp199
a(I0
I1
F60.0
tp200
a(I1
I1
F60.0
tp201
a(I1
I0
F60.0
tp202
a(I-1
I0
F60.0
tp203
a(I0
I0
F60.0
tp204
as(F-0.041
F0.121
F45.0
F0.041
F-0.121
F15.0
tp205
(lp206
(I0
I0
F30.0
tp207
a(I1
I1
F30.0
tp208
a(I-1
I0
F30.0
tp209
a(I0
I1
F30.0
tp210
a(I1
I0
F30.0
tp211
as(F-0.027
F0.154
F80.0
F0.027
F-0.154
F40.0
tp212
(lp213
(I0
I-1
F60.0
tp214
a(I-1
I-1
F60.0
tp215
a(I1
I2
F60.0
tp216
a(I1
I1
F60.0
tp217
a(I1
I0
F60.0
tp218
a(I-1
I0
F60.0
tp219
a(I0
I0
F60.0
tp220
as(F-0.043
F0.186
F45.0
F0.043
F-0.186
F75.0
tp221
(lp222
(I0
I-1
F60.0
tp223
a(I-1
I-2
F60.0
tp224
a(I0
I1
F60.0
tp225
a(I1
I2
F60.0
tp226
a(I-1
I-1
F60.0
tp227
a(I1
I1
F60.0
tp228
a(I1
I0
F60.0
tp229
a(I-1
I0
F60.0
tp230
a(I0
I0
F60.0
tp231
as(F0.021
F0.174
F10.0
F-0.021
F-0.174
F50.0
tp232
(lp233
(I1
I1
F30.0
tp234
a(I-1
I0
F30.0
tp235
a(I1
I0
F30.0
tp236
a(I0
I-1
F30.0
tp237
a(I0
I0
F30.0
tp238
a(I-1
I-1
F30.0
tp239
a(I0
I1
F30.0
tp240
as(F-0.155
F0.032
F45.0
F0.155
F-0.032
F75.0
tp241
(lp242
(I0
I-1
F60.0
tp243
a(I-1
I-1
F60.0
tp244
a(I0
I1
F60.0
tp245
a(I1
I1
F60.0
tp246
a(I1
I0
F60.0
tp247
a(I-1
I0
F60.0
tp248
a(I0
I0
F60.0
tp249
as(F-0.106
F0.083
F45.0
F0.106
F-0.083
F15.0
tp250
(lp251
(I1
I1
F30.0
tp252
a(I1
I0
F30.0
tp253
a(I0
I-1
F30.0
tp254
a(I0
I0
F30.0
tp255
a(I2
I1
F30.0
tp256
a(I-1
I-1
F30.0
tp257
a(I0
I1
F30.0
tp258
as(F-0.093
F0.062
F30.0
F0.093
F-0.062
F30.0
tp259
(lp260
(I1
I1
F30.0
tp261
a(I1
I0
F30.0
tp262
a(I0
I-1
F30.0
tp263
a(I0
I0
F30.0
tp264
a(I-1
I-1
F30.0
tp265
a(I0
I1
F30.0
tp266
as(F-0.05
F0.1
F0.0
F0.05
F-0.1
F0.0
tp267
(lp268
(I1
I1
F0.0
tp269
a(I1
I0
F0.0
tp270
a(I-1
I-1
F0.0
tp271
a(I0
I0
F0.0
tp272
a(I0
I-1
F0.0
tp273
a(I-1
I0
F0.0
tp274
a(I0
I1
F0.0
tp275
as(F-0.142
F0.053
F45.0
F0.142
F-0.053
F75.0
tp276
(lp277
(I0
I-1
F60.0
tp278
a(I-1
I-1
F60.0
tp279
a(I0
I1
F60.0
tp280
a(I1
I1
F60.0
tp281
a(I-1
I0
F60.0
tp282
a(I0
I0
F60.0
tp283
as(F-0.02
F0.205
F20.0
F0.02
F-0.205
F-20.0
tp284
(lp285
(I1
I1
F0.0
tp286
a(I1
I0
F0.0
tp287
a(I1
I-1
F0.0
tp288
a(I0
I0
F0.0
tp289
a(I0
I-1
F0.0
tp290
a(I-1
I0
F0.0
tp291
a(I0
I1
F0.0
tp292
as(F-0.085
F0.115
F20.0
F0.085
F-0.115
F-20.0
tp293
(lp294
(I1
I1
F0.0
tp295
a(I1
I0
F0.0
tp296
a(I0
I0
F0.0
tp297
a(I0
I-1
F0.0
tp298
a(I-1
I0
F0.0
tp299
a(I2
I0
F0.0
tp300
as(F-0.0
F0.165
F-20.0
F0.0
F-0.165
F20.0
tp301
(lp302
(I-1
I1
F0.0
tp303
a(I1
I0
F0.0
tp304
a(I-1
I-1
F0.0
tp305
a(I0
I0
F0.0
tp306
a(I0
I-1
F0.0
tp307
a(I-1
I0
F0.0
tp308
a(I0
I1
F0.0
tp309
as(F-0.118
F0.105
F15.0
F0.118
F-0.105
F45.0
tp310
(lp311
(I1
I1
F30.0
tp312
a(I-1
I0
F30.0
tp313
a(I1
I0
F30.0
tp314
a(I0
I-1
F30.0
tp315
a(I0
I0
F30.0
tp316
a(I-1
I-1
F30.0
tp317
a(I0
I1
F30.0
tp318
as(F-0.125
F0.15
F-20.0
F0.125
F-0.15
F20.0
tp319
(lp320
(I1
I0
F0.0
tp321
a(I0
I0
F0.0
tp322
a(I0
I-1
F0.0
tp323
a(I-1
I0
F0.0
tp324
a(I-2
I0
F0.0
tp325
a(I0
I1
F0.0
tp326
a(I2
I0
F0.0
tp327
as(F-0.108
F0.063
F52.5
F0.108
F-0.063
F67.5
tp328
(lp329
(I0
I-1
F60.0
tp330
a(I-1
I-1
F60.0
tp331
a(I0
I1
F60.0
tp332
a(I1
I1
F60.0
tp333
a(I1
I0
F60.0
tp334
a(I-1
I0
F60.0
tp335
a(I0
I0
F60.0
tp336
as(F-0.12
F0.168
F50.0
F0.12
F-0.168
F10.0
tp337
(lp338
(I1
I1
F30.0
tp339
a(I-1
I0
F30.0
tp340
a(I1
I0
F30.0
tp341
a(I0
I-1
F30.0
tp342
a(I0
I0
F30.0
tp343
a(I0
I1
F30.0
tp344
as(F-0.105
F0.115
F20.0
F0.105
F-0.115
F-20.0
tp345
(lp346
(I1
I1
F0.0
tp347
a(I1
I0
F0.0
tp348
a(I0
I0
F0.0
tp349
a(I0
I-1
F0.0
tp350
a(I-1
I0
F0.0
tp351
a(I2
I0
F0.0
tp352
as(F-0.0
F0.165
F-2.5
F0.0
F-0.165
F2.5
tp353
(lp354
(I1
I0
F0.0
tp355
a(I-1
I0
F0.0
tp356
a(I0
I1
F0.0
tp357
a(I0
I0
F0.0
tp358
a(I0
I-1
F0.0
tp359
as(F-0.217
F0.125
F77.5
F0.217
F-0.125
F42.5
tp360
(lp361
(I0
I-1
F60.0
tp362
a(I1
I0
F60.0
tp363
a(I-1
I0
F60.0
tp364
a(I0
I1
F60.0
tp365
a(I0
I0
F60.0
tp366
as(F-0.183
F-0.056
F45.0
F0.183
F0.056
F75.0
tp367
(lp368
(I0
I-1
F60.0
tp369
a(I-1
I-2
F60.0
tp370
a(I0
I1
F60.0
tp371
a(I1
I2
F60.0
tp372
a(I-1
I-1
F60.0
tp373
a(I1
I1
F60.0
tp374
a(I0
I0
F60.0
tp375
as(F-0.142
F-0.016
F80.0
F0.142
F0.016
F40.0
tp376
(lp377
(I0
I-1
F60.0
tp378
a(I1
I2
F60.0
tp379
a(I1
I1
F60.0
tp380
a(I0
I1
F60.0
tp381
a(I1
I0
F60.0
tp382
a(I0
I0
F60.0
tp383
as(F-0.082
F0.143
F17.5
F0.082
F-0.143
F42.5
tp384
(lp385
(I1
I1
F30.0
tp386
a(I-1
I0
F30.0
tp387
a(I1
I0
F30.0
tp388
a(I0
I-1
F30.0
tp389
a(I0
I0
F30.0
tp390
a(I-1
I-1
F30.0
tp391
a(I0
I1
F30.0
tp392
as(F-0.057
F0.131
F80.0
F0.057
F-0.131
F40.0
tp393
(lp394
(I-1
I-1
F60.0
tp395
a(I0
I1
F60.0
tp396
a(I1
I2
F60.0
tp397
a(I1
I1
F60.0
tp398
a(I1
I0
F60.0
tp399
a(I-1
I0
F60.0
tp400
a(I0
I0
F60.0
tp401
as(F-0.0
F0.25
F-20.0
F0.0
F-0.25
F20.0
tp402
(lp403
(I-1
I1
F0.0
tp404
a(I1
I1
F0.0
tp405
a(I1
I-1
F0.0
tp406
a(I-1
I-1
F0.0
tp407
a(I0
I0
F0.0
tp408
a(I0
I-1
F0.0
tp409
a(I-1
I0
F0.0
tp410
a(I0
I1
F0.0
tp411
as(F-0.161
F0.069
F10.0
F0.161
F-0.069
F50.0
tp412
(lp413
(I1
I1
F30.0
tp414
a(I-1
I0
F30.0
tp415
a(I1
I0
F30.0
tp416
a(I0
I-1
F30.0
tp417
a(I0
I0
F30.0
tp418
a(I-1
I-1
F30.0
tp419
a(I0
I1
F30.0
tp420
as(F0.1
F0.1
F0.0
F-0.1
F-0.1
F0.0
tp421
(lp422
(I-1
I1
F0.0
tp423
a(I1
I0
F0.0
tp424
a(I1
I-1
F0.0
tp425
a(I0
I0
F0.0
tp426
a(I-1
I0
F0.0
tp427
a(I-2
I0
F0.0
tp428
a(I2
I0
F0.0
tp429
as(F-0.0
F0.175
F-2.5
F0.0
F-0.175
F2.5
tp430
(lp431
(I1
I1
F0.0
tp432
a(I1
I0
F0.0
tp433
a(I1
I-1
F0.0
tp434
a(I0
I0
F0.0
tp435
a(I0
I-1
F0.0
tp436
a(I-1
I0
F0.0
tp437
a(I0
I1
F0.0
tp438
as(F-0.192
F-0.033
F40.0
F0.192
F0.033
F80.0
tp439
(lp440
(I0
I-1
F60.0
tp441
a(I-1
I-2
F60.0
tp442
a(I0
I1
F60.0
tp443
a(I-1
I-1
F60.0
tp444
a(I1
I1
F60.0
tp445
a(I1
I0
F60.0
tp446
a(I0
I0
F60.0
tp447
as(F-0.045
F0.16
F-7.5
F0.045
F-0.16
F7.5
tp448
(lp449
(I1
I0
F0.0
tp450
a(I-1
I0
F0.0
tp451
a(I0
I1
F0.0
tp452
a(I0
I0
F0.0
tp453
a(I-1
I-1
F0.0
tp454
as(F-0.024
F0.158
F60.0
F0.024
F-0.158
F60.0
tp455
(lp456
(I0
I-1
F60.0
tp457
a(I-1
I-1
F60.0
tp458
a(I0
I1
F60.0
tp459
a(I1
I2
F60.0
tp460
a(I1
I1
F60.0
tp461
a(I1
I0
F60.0
tp462
a(I-1
I0
F60.0
tp463
a(I0
I0
F60.0
tp464
as(F-0.217
F0.125
F40.0
F0.217
F-0.125
F80.0
tp465
(lp466
(I0
I-1
F60.0
tp467
a(I1
I0
F60.0
tp468
a(I-1
I0
F60.0
tp469
a(I0
I1
F60.0
tp470
a(I0
I0
F60.0
tp471
as(F-0.108
F0.063
F60.0
F0.108
F-0.063
F60.0
tp472
(lp473
(I0
I-1
F60.0
tp474
a(I0
I1
F60.0
tp475
a(I1
I1
F60.0
tp476
a(I1
I0
F60.0
tp477
a(I-1
I0
F60.0
tp478
a(I0
I0
F60.0
tp479
as(F-0.02
F0.205
F-20.0
F0.02
F-0.205
F20.0
tp480
(lp481
(I-1
I1
F0.0
tp482
a(I1
I0
F0.0
tp483
a(I1
I-1
F0.0
tp484
a(I-1
I-1
F0.0
tp485
a(I0
I0
F0.0
tp486
a(I0
I-1
F0.0
tp487
a(I-1
I0
F0.0
tp488
a(I0
I1
F0.0
tp489
as(F-0.125
F0.217
F10.0
F0.125
F-0.217
F50.0
tp490
(lp491
(I0
I0
F30.0
tp492
a(I-1
I0
F30.0
tp493
a(I0
I1
F30.0
tp494
a(I1
I0
F30.0
tp495
a(I0
I-1
F30.0
tp496
as(F-0.125
F0.217
F50.0
F0.125
F-0.217
F10.0
tp497
(lp498
(I0
I0
F30.0
tp499
a(I-1
I0
F30.0
tp500
a(I0
I1
F30.0
tp501
a(I1
I0
F30.0
tp502
a(I0
I-1
F30.0
tp503
as(F-0.217
F0.125
F80.0
F0.217
F-0.125
F40.0
tp504
(lp505
(I0
I-1
F60.0
tp506
a(I1
I0
F60.0
tp507
a(I-1
I0
F60.0
tp508
a(I0
I1
F60.0
tp509
a(I0
I0
F60.0
tp510
as(F-0.158
F0.024
F30.0
F0.158
F-0.024
F30.0
tp511
(lp512
(I1
I1
F30.0
tp513
a(I-1
I0
F30.0
tp514
a(I1
I0
F30.0
tp515
a(I0
I-1
F30.0
tp516
a(I0
I0
F30.0
tp517
a(I2
I1
F30.0
tp518
a(I-1
I-1
F30.0
tp519
a(I0
I1
F30.0
tp520
as(F0.012
F0.18
F10.0
F-0.012
F-0.18
F50.0
tp521
(lp522
(I1
I1
F30.0
tp523
a(I-1
I0
F30.0
tp524
a(I1
I0
F30.0
tp525
a(I0
I-1
F30.0
tp526
a(I0
I0
F30.0
tp527
a(I-1
I-1
F30.0
tp528
a(I0
I1
F30.0
tp529
as(F-0.0
F0.1
F0.0
F0.0
F-0.1
F0.0
tp530
(lp531
(I1
I0
F0.0
tp532
a(I-1
I0
F0.0
tp533
a(I0
I1
F0.0
tp534
a(I0
I0
F0.0
tp535
a(I0
I-1
F0.0
tp536
as(F-0.05
F0.087
F30.0
F0.05
F-0.087
F30.0
tp537
(lp538
(I1
I1
F30.0
tp539
a(I-1
I0
F30.0
tp540
a(I1
I0
F30.0
tp541
a(I0
I-1
F30.0
tp542
a(I0
I0
F30.0
tp543
a(I0
I1
F30.0
tp544
as(F-0.133
F0.019
F75.0
F0.133
F-0.019
F45.0
tp545
(lp546
(I0
I-1
F60.0
tp547
a(I1
I0
F60.0
tp548
a(I1
I1
F60.0
tp549
a(I0
I1
F60.0
tp550
a(I0
I0
F60.0
tp551
as(F0.08
F0.162
F30.0
F-0.08
F-0.162
F30.0
tp552
(lp553
(I1
I1
F30.0
tp554
a(I-1
I0
F30.0
tp555
a(I1
I0
F30.0
tp556
a(I0
I0
F30.0
tp557
a(I2
I1
F30.0
tp558
a(I-2
I-1
F30.0
tp559
a(I-1
I-1
F30.0
tp560
as(F-0.085
F0.188
F50.0
F0.085
F-0.188
F10.0
tp561
(lp562
(I0
I0
F30.0
tp563
a(I1
I1
F30.0
tp564
a(I0
I1
F30.0
tp565
a(I1
I0
F30.0
tp566
a(I0
I-1
F30.0
tp567
as(F-0.087
F0.05
F60.0
F0.087
F-0.05
F60.0
tp568
(lp569
(I0
I-1
F60.0
tp570
a(I0
I1
F60.0
tp571
a(I1
I1
F60.0
tp572
a(I1
I0
F60.0
tp573
a(I-1
I0
F60.0
tp574
a(I0
I0
F60.0
tp575
as(F-0.08
F0.162
F40.0
F0.08
F-0.162
F80.0
tp576
(lp577
(I0
I-1
F60.0
tp578
a(I-1
I-1
F60.0
tp579
a(I0
I1
F60.0
tp580
a(I1
I1
F60.0
tp581
a(I1
I0
F60.0
tp582
a(I-1
I0
F60.0
tp583
a(I0
I0
F60.0
tp584
as(F-0.125
F0.1
F0.0
F0.125
F-0.1
F0.0
tp585
(lp586
(I1
I1
F0.0
tp587
a(I1
I0
F0.0
tp588
a(I-1
I-1
F0.0
tp589
a(I0
I0
F0.0
tp590
a(I-1
I0
F0.0
tp591
a(I-2
I0
F0.0
tp592
a(I2
I0
F0.0
tp593
as(F-0.148
F0.047
F50.0
F0.148
F-0.047
F10.0
tp594
(lp595
(I1
I1
F30.0
tp596
a(I-1
I0
F30.0
tp597
a(I1
I0
F30.0
tp598
a(I0
I-1
F30.0
tp599
a(I0
I0
F30.0
tp600
a(I2
I1
F30.0
tp601
a(I-1
I-1
F30.0
tp602
a(I0
I1
F30.0
tp603
as(F-0.019
F0.133
F45.0
F0.019
F-0.133
F15.0
tp604
(lp605
(I0
I0
F30.0
tp606
a(I1
I1
F30.0
tp607
a(I-1
I0
F30.0
tp608
a(I0
I1
F30.0
tp609
a(I1
I0
F30.0
tp610
as(F-0.0
F0.125
F-7.5
F0.0
F-0.125
F7.5
tp611
(lp612
(I1
I0
F0.0
tp613
a(I-1
I0
F0.0
tp614
a(I0
I1
F0.0
tp615
a(I0
I0
F0.0
tp616
a(I0
I-1
F0.0
tp617
as(F0.02
F0.19
F-12.5
F-0.02
F-0.19
F12.5
tp618
(lp619
(I-1
I1
F0.0
tp620
a(I1
I1
F0.0
tp621
a(I1
I0
F0.0
tp622
a(I-1
I-1
F0.0
tp623
a(I0
I0
F0.0
tp624
a(I0
I-1
F0.0
tp625
a(I-1
I0
F0.0
tp626
a(I0
I1
F0.0
tp627
as(F-0.131
F0.057
F50.0
F0.131
F-0.057
F10.0
tp628
(lp629
(I1
I1
F30.0
tp630
a(I1
I0
F30.0
tp631
a(I0
I-1
F30.0
tp632
a(I0
I0
F30.0
tp633
a(I2
I1
F30.0
tp634
a(I-1
I-1
F30.0
tp635
a(I0
I1
F30.0
tp636
as(F-0.097
F0.117
F15.0
F0.097
F-0.117
F45.0
tp637
(lp638
(I0
I0
F30.0
tp639
a(I1
I1
F30.0
tp640
a(I-1
I0
F30.0
tp641
a(I1
I0
F30.0
tp642
a(I0
I-1
F30.0
tp643
as(F-0.125
F0.217
F47.5
F0.125
F-0.217
F12.5
tp644
(lp645
(I0
I0
F30.0
tp646
a(I-1
I0
F30.0
tp647
a(I0
I1
F30.0
tp648
a(I1
I0
F30.0
tp649
a(I0
I-1
F30.0
tp650
as(F-0.12
F0.1
F20.0
F0.12
F-0.1
F-20.0
tp651
(lp652
(I1
I1
F0.0
tp653
a(I1
I0
F0.0
tp654
a(I-1
I-1
F0.0
tp655
a(I0
I0
F0.0
tp656
a(I0
I-1
F0.0
tp657
a(I-1
I0
F0.0
tp658
a(I2
I0
F0.0
tp659
as(F0.105
F0.115
F20.0
F-0.105
F-0.115
F-20.0
tp660
(lp661
(I1
I0
F0.0
tp662
a(I1
I-1
F0.0
tp663
a(I0
I0
F0.0
tp664
a(I-1
I0
F0.0
tp665
a(I0
I1
F0.0
tp666
a(I2
I0
F0.0
tp667
as(F-0.084
F0.096
F45.0
F0.084
F-0.096
F15.0
tp668
(lp669
(I0
I0
F30.0
tp670
a(I1
I1
F30.0
tp671
a(I-1
I0
F30.0
tp672
a(I0
I1
F30.0
tp673
a(I1
I0
F30.0
tp674
as(F-0.162
F0.08
F10.0
F0.162
F-0.08
F50.0
tp675
(lp676
(I1
I1
F30.0
tp677
a(I-1
I0
F30.0
tp678
a(I1
I0
F30.0
tp679
a(I0
I-1
F30.0
tp680
a(I0
I0
F30.0
tp681
a(I-1
I-1
F30.0
tp682
a(I0
I1
F30.0
tp683
as(F-0.174
F-0.021
F40.0
F0.174
F0.021
F80.0
tp684
(lp685
(I0
I-1
F60.0
tp686
a(I-1
I-1
F60.0
tp687
a(I0
I1
F60.0
tp688
a(I1
I1
F60.0
tp689
a(I1
I0
F60.0
tp690
a(I-1
I0
F60.0
tp691
a(I0
I0
F60.0
tp692
as(F0.14
F0.13
F-15.0
F-0.14
F-0.13
F15.0
tp693
(lp694
(I-1
I1
F0.0
tp695
a(I1
I0
F0.0
tp696
a(I1
I-1
F0.0
tp697
a(I0
I0
F0.0
tp698
a(I-1
I0
F0.0
tp699
a(I-2
I0
F0.0
tp700
a(I2
I0
F0.0
tp701
as(F-0.161
F0.041
F52.5
F0.161
F-0.041
F67.5
tp702
(lp703
(I0
I-1
F60.0
tp704
a(I-1
I-1
F60.0
tp705
a(I0
I1
F60.0
tp706
a(I1
I1
F60.0
tp707
a(I1
I0
F60.0
tp708
a(I-1
I0
F60.0
tp709
a(I0
I0
F60.0
tp710
as(F0.025
F0.15
F-15.0
F-0.025
F-0.15
F15.0
tp711
(lp712
(I-1
I1
F0.0
tp713
a(I-1
I0
F0.0
tp714
a(I1
I0
F0.0
tp715
a(I0
I0
F0.0
tp716
a(I0
I-1
F0.0
tp717
as(F-0.168
F0.12
F40.0
F0.168
F-0.12
F80.0
tp718
(lp719
(I0
I-1
F60.0
tp720
a(I-1
I-1
F60.0
tp721
a(I0
I1
F60.0
tp722
a(I1
I0
F60.0
tp723
a(I-1
I0
F60.0
tp724
a(I0
I0
F60.0
tp725
as(F-0.149
F-0.058
F60.0
F0.149
F0.058
F60.0
tp726
(lp727
(I0
I-1
F60.0
tp728
a(I-1
I-2
F60.0
tp729
a(I1
I2
F60.0
tp730
a(I1
I1
F60.0
tp731
a(I0
I1
F60.0
tp732
a(I0
I0
F60.0
tp733
as(F-0.041
F0.161
F22.5
F0.041
F-0.161
F37.5
tp734
(lp735
(I1
I1
F30.0
tp736
a(I-1
I0
F30.0
tp737
a(I1
I0
F30.0
tp738
a(I0
I-1
F30.0
tp739
a(I0
I0
F30.0
tp740
a(I-1
I-1
F30.0
tp741
a(I0
I1
F30.0
tp742
as(F-0.025
F0.15
F-15.0
F0.025
F-0.15
F15.0
tp743
(lp744
(I1
I0
F0.0
tp745
a(I-1
I0
F0.0
tp746
a(I0
I1
F0.0
tp747
a(I0
I0
F0.0
tp748
a(I-1
I-1
F0.0
tp749
as(F-0.007
F0.112
F30.0
F0.007
F-0.112
F30.0
tp750
(lp751
(I0
I0
F30.0
tp752
a(I1
I1
F30.0
tp753
a(I-1
I0
F30.0
tp754
a(I0
I1
F30.0
tp755
a(I1
I0
F30.0
tp756
as(F0.054
F0.147
F50.0
F-0.054
F-0.147
F10.0
tp757
(lp758
(I0
I0
F30.0
tp759
a(I1
I1
F30.0
tp760
a(I-1
I0
F30.0
tp761
a(I2
I1
F30.0
tp762
a(I1
I0
F30.0
tp763
as(F-0.147
F-0.054
F80.0
F0.147
F0.054
F40.0
tp764
(lp765
(I0
I-1
F60.0
tp766
a(I1
I2
F60.0
tp767
a(I1
I1
F60.0
tp768
a(I0
I1
F60.0
tp769
a(I0
I0
F60.0
tp770
as(F-0.069
F0.161
F40.0
F0.069
F-0.161
F80.0
tp771
(lp772
(I0
I-1
F60.0
tp773
a(I-1
I-1
F60.0
tp774
a(I0
I1
F60.0
tp775
a(I1
I1
F60.0
tp776
a(I1
I0
F60.0
tp777
a(I-1
I0
F60.0
tp778
a(I0
I0
F60.0
tp779
as(F-0.047
F0.148
F80.0
F0.047
F-0.148
F40.0
tp780
(lp781
(I0
I-1
F60.0
tp782
a(I-1
I-1
F60.0
tp783
a(I0
I1
F60.0
tp784
a(I1
I2
F60.0
tp785
a(I1
I1
F60.0
tp786
a(I1
I0
F60.0
tp787
a(I-1
I0
F60.0
tp788
a(I0
I0
F60.0
tp789
as(F-0.143
F0.083
F57.5
F0.143
F-0.083
F62.5
tp790
(lp791
(I0
I-1
F60.0
tp792
a(I0
I1
F60.0
tp793
a(I1
I1
F60.0
tp794
a(I1
I0
F60.0
tp795
a(I-1
I0
F60.0
tp796
a(I0
I0
F60.0
tp797
as(F-0.082
F0.143
F10.0
F0.082
F-0.143
F50.0
tp798
(lp799
(I1
I1
F30.0
tp800
a(I-1
I0
F30.0
tp801
a(I1
I0
F30.0
tp802
a(I0
I-1
F30.0
tp803
a(I0
I0
F30.0
tp804
a(I-1
I-1
F30.0
tp805
as(F-0.096
F0.084
F75.0
F0.096
F-0.084
F45.0
tp806
(lp807
(I0
I-1
F60.0
tp808
a(I1
I0
F60.0
tp809
a(I1
I1
F60.0
tp810
a(I0
I1
F60.0
tp811
a(I0
I0
F60.0
tp812
as(F-0.1
F0.15
F-20.0
F0.1
F-0.15
F20.0
tp813
(lp814
(I1
I0
F0.0
tp815
a(I-1
I-1
F0.0
tp816
a(I0
I0
F0.0
tp817
a(I0
I-1
F0.0
tp818
a(I-1
I0
F0.0
tp819
a(I0
I1
F0.0
tp820
a(I2
I0
F0.0
tp821
as(F-0.012
F0.18
F60.0
F0.012
F-0.18
F60.0
tp822
(lp823
(I0
I-1
F60.0
tp824
a(I-1
I-2
F60.0
tp825
a(I1
I2
F60.0
tp826
a(I-1
I-1
F60.0
tp827
a(I1
I1
F60.0
tp828
a(I1
I0
F60.0
tp829
a(I-1
I0
F60.0
tp830
a(I0
I0
F60.0
tp831
as(F-0.14
F0.13
F-15.0
F0.14
F-0.13
F15.0
tp832
(lp833
(I1
I1
F0.0
tp834
a(I1
I0
F0.0
tp835
a(I-1
I-1
F0.0
tp836
a(I0
I0
F0.0
tp837
a(I-1
I0
F0.0
tp838
a(I-2
I0
F0.0
tp839
a(I2
I0
F0.0
tp840
as(F-0.1
F0.173
F45.0
F0.1
F-0.173
F15.0
tp841
(lp842
(I1
I1
F30.0
tp843
a(I-1
I0
F30.0
tp844
a(I1
I0
F30.0
tp845
a(I0
I-1
F30.0
tp846
a(I0
I0
F30.0
tp847
a(I0
I1
F30.0
tp848
as(F0.058
F0.149
F30.0
F-0.058
F-0.149
F30.0
tp849
(lp850
(I1
I1
F30.0
tp851
a(I-1
I0
F30.0
tp852
a(I1
I0
F30.0
tp853
a(I0
I0
F30.0
tp854
a(I2
I1
F30.0
tp855
a(I-2
I-1
F30.0
tp856
as(F-0.025
F0.125
F15.0
F0.025
F-0.125
F-15.0
tp857
(lp858
(I1
I1
F0.0
tp859
a(I1
I0
F0.0
tp860
a(I0
I0
F0.0
tp861
a(I0
I-1
F0.0
tp862
a(I-1
I0
F0.0
tp863
a(I0
I1
F0.0
tp864
as(F-0.152
F-0.033
F80.0
F0.152
F0.033
F40.0
tp865
(lp866
(I0
I-1
F60.0
tp867
a(I1
I2
F60.0
tp868
a(I1
I1
F60.0
tp869
a(I0
I1
F60.0
tp870
a(I0
I0
F60.0
tp871
as(F-0.183
F0.067
F10.0
F0.183
F-0.067
F50.0
tp872
(lp873
(I1
I1
F30.0
tp874
a(I-1
I0
F30.0
tp875
a(I1
I0
F30.0
tp876
a(I0
I-1
F30.0
tp877
a(I0
I0
F30.0
tp878
a(I2
I1
F30.0
tp879
a(I-1
I-1
F30.0
tp880
a(I0
I1
F30.0
tp881
as(F-0.112
F0.155
F17.5
F0.112
F-0.155
F42.5
tp882
(lp883
(I0
I0
F30.0
tp884
a(I-1
I0
F30.0
tp885
a(I0
I1
F30.0
tp886
a(I1
I0
F30.0
tp887
a(I0
I-1
F30.0
tp888
as(F0.033
F0.152
F50.0
F-0.033
F-0.152
F10.0
tp889
(lp890
(I0
I0
F30.0
tp891
a(I1
I1
F30.0
tp892
a(I-1
I0
F30.0
tp893
a(I2
I1
F30.0
tp894
a(I1
I0
F30.0
tp895
as(F0.12
F0.1
F20.0
F-0.12
F-0.1
F-20.0
tp896
(lp897
(I-1
I1
F0.0
tp898
a(I1
I0
F0.0
tp899
a(I1
I-1
F0.0
tp900
a(I0
I0
F0.0
tp901
a(I-1
I0
F0.0
tp902
a(I0
I1
F0.0
tp903
a(I2
I0
F0.0
tp904
as(F0.105
F0.14
F-20.0
F-0.105
F-0.14
F20.0
tp905
(lp906
(I-1
I1
F0.0
tp907
a(I1
I0
F0.0
tp908
a(I0
I0
F0.0
tp909
a(I0
I-1
F0.0
tp910
a(I-1
I0
F0.0
tp911
a(I0
I1
F0.0
tp912
a(I2
I0
F0.0
tp913
as(F-0.037
F0.137
F60.0
F0.037
F-0.137
F60.0
tp914
(lp915
(I0
I-1
F60.0
tp916
a(I-1
I-1
F60.0
tp917
a(I0
I1
F60.0
tp918
a(I1
I2
F60.0
tp919
a(I1
I1
F60.0
tp920
a(I1
I0
F60.0
tp921
a(I-1
I0
F60.0
tp922
a(I0
I0
F60.0
tp923
as(F-0.188
F0.085
F40.0
F0.188
F-0.085
F80.0
tp924
(lp925
(I0
I-1
F60.0
tp926
a(I-1
I-1
F60.0
tp927
a(I0
I1
F60.0
tp928
a(I1
I1
F60.0
tp929
a(I1
I0
F60.0
tp930
a(I-1
I0
F60.0
tp931
a(I0
I0
F60.0
tp932
as(F-0.12
F0.168
F10.0
F0.12
F-0.168
F50.0
tp933
(lp934
(I-1
I0
F30.0
tp935
a(I1
I0
F30.0
tp936
a(I0
I-1
F30.0
tp937
a(I0
I0
F30.0
tp938
a(I-1
I-1
F30.0
tp939
a(I0
I1
F30.0
tp940
as(F-0.05
F0.15
F-15.0
F0.05
F-0.15
F15.0
tp941
(lp942
(I1
I0
F0.0
tp943
a(I-1
I0
F0.0
tp944
a(I0
I1
F0.0
tp945
a(I0
I0
F0.0
tp946
a(I-1
I-1
F0.0
tp947
as(F-0.116
F0.119
F52.5
F0.116
F-0.119
F67.5
tp948
(lp949
(I0
I-1
F60.0
tp950
a(I0
I1
F60.0
tp951
a(I1
I1
F60.0
tp952
a(I1
I0
F60.0
tp953
a(I-1
I0
F60.0
tp954
a(I0
I0
F60.0
tp955
as(F-0.186
F0.043
F15.0
F0.186
F-0.043
F45.0
tp956
(lp957
(I1
I1
F30.0
tp958
a(I-1
I0
F30.0
tp959
a(I1
I0
F30.0
tp960
a(I0
I-1
F30.0
tp961
a(I0
I0
F30.0
tp962
a(I2
I1
F30.0
tp963
a(I-2
I-1
F30.0
tp964
a(I0
I1
F30.0
tp965
a(I-1
I-1
F30.0
tp966
as(F-0.062
F0.108
F30.0
F0.062
F-0.108
F30.0
tp967
(lp968
(I1
I1
F30.0
tp969
a(I-1
I0
F30.0
tp970
a(I1
I0
F30.0
tp971
a(I0
I-1
F30.0
tp972
a(I0
I0
F30.0
tp973
a(I0
I1
F30.0
tp974
as(F-0.168
F0.12
F80.0
F0.168
F-0.12
F40.0
tp975
(lp976
(I0
I-1
F60.0
tp977
a(I0
I1
F60.0
tp978
a(I1
I1
F60.0
tp979
a(I1
I0
F60.0
tp980
a(I-1
I0
F60.0
tp981
a(I0
I0
F60.0
tp982
as(F-0.105
F0.118
F45.0
F0.105
F-0.118
F75.0
tp983
(lp984
(I0
I-1
F60.0
tp985
a(I-1
I-1
F60.0
tp986
a(I0
I1
F60.0
tp987
a(I1
I1
F60.0
tp988
a(I1
I0
F60.0
tp989
a(I-1
I0
F60.0
tp990
a(I0
I0
F60.0
tp991
as(F-0.15
F0.1
F0.0
F0.15
F-0.1
F0.0
tp992
(lp993
(I1
I1
F0.0
tp994
a(I1
I0
F0.0
tp995
a(I-1
I-1
F0.0
tp996
a(I0
I0
F0.0
tp997
a(I-1
I0
F0.0
tp998
a(I-2
I0
F0.0
tp999
a(I2
I0
F0.0
tp1000
as(F0.1
F0.15
F-20.0
F-0.1
F-0.15
F20.0
tp1001
(lp1002
(I-1
I1
F0.0
tp1003
a(I1
I0
F0.0
tp1004
a(I0
I0
F0.0
tp1005
a(I0
I-1
F0.0
tp1006
a(I-1
I0
F0.0
tp1007
a(I0
I1
F0.0
tp1008
a(I2
I0
F0.0
tp1009
as(F-0.062
F0.108
F22.5
F0.062
F-0.108
F37.5
tp1010
(lp1011
(I1
I1
F30.0
tp1012
a(I-1
I0
F30.0
tp1013
a(I1
I0
F30.0
tp1014
a(I0
I-1
F30.0
tp1015
a(I0
I0
F30.0
tp1016
a(I-1
I-1
F30.0
tp1017
a(I0
I1
F30.0
tp1018
as(F0.045
F0.16
F-7.5
F-0.045
F-0.16
F7.5
tp1019
(lp1020
(I-1
I1
F0.0
tp1021
a(I-1
I0
F0.0
tp1022
a(I1
I0
F0.0
tp1023
a(I0
I0
F0.0
tp1024
a(I0
I-1
F0.0
tp1025
as(F0.025
F0.125
F15.0
F-0.025
F-0.125
F-15.0
tp1026
(lp1027
(I1
I0
F0.0
tp1028
a(I1
I-1
F0.0
tp1029
a(I0
I0
F0.0
tp1030
a(I0
I-1
F0.0
tp1031
a(I-1
I0
F0.0
tp1032
a(I0
I1
F0.0
tp1033
as(F-0.053
F0.142
F15.0
F0.053
F-0.142
F45.0
tp1034
(lp1035
(I1
I1
F30.0
tp1036
a(I-1
I0
F30.0
tp1037
a(I1
I0
F30.0
tp1038
a(I0
I-1
F30.0
tp1039
a(I0
I0
F30.0
tp1040
a(I-1
I-1
F30.0
tp1041
as(F-0.0
F0.165
F-12.5
F0.0
F-0.165
F12.5
tp1042
(lp1043
(I-1
I1
F0.0
tp1044
a(I1
I0
F0.0
tp1045
a(I-1
I-1
F0.0
tp1046
a(I0
I0
F0.0
tp1047
a(I0
I-1
F0.0
tp1048
a(I0
I1
F0.0
tp1049
as(F-0.173
F0.1
F75.0
F0.173
F-0.1
F45.0
tp1050
(lp1051
(I0
I-1
F60.0
tp1052
a(I0
I1
F60.0
tp1053
a(I1
I1
F60.0
tp1054
a(I1
I0
F60.0
tp1055
a(I-1
I0
F60.0
tp1056
a(I0
I0
F60.0
tp1057
as(F-0.162
F-0.08
F60.0
F0.162
F0.08
F60.0
tp1058
(lp1059
(I0
I-1
F60.0
tp1060
a(I-1
I-2
F60.0
tp1061
a(I0
I1
F60.0
tp1062
a(I1
I2
F60.0
tp1063
a(I-1
I-1
F60.0
tp1064
a(I1
I1
F60.0
tp1065
a(I0
I0
F60.0
tp1066
as(F-0.143
F0.083
F40.0
F0.143
F-0.083
F80.0
tp1067
(lp1068
(I0
I-1
F60.0
tp1069
a(I-1
I-1
F60.0
tp1070
a(I0
I1
F60.0
tp1071
a(I1
I1
F60.0
tp1072
a(I-1
I0
F60.0
tp1073
a(I0
I0
F60.0
tp1074
as(F-0.18
F0.012
F30.0
F0.18
F-0.012
F30.0
tp1075
(lp1076
(I1
I1
F30.0
tp1077
a(I-1
I0
F30.0
tp1078
a(I0
I-1
F30.0
tp1079
a(I0
I0
F30.0
tp1080
a(I2
I1
F30.0
tp1081
a(I-2
I-1
F30.0
tp1082
a(I0
I1
F30.0
tp1083
a(I-1
I-1
F30.0
tp1084
as(F-0.0
F0.25
F17.5
F0.0
F-0.25
F-17.5
tp1085
(lp1086
(I1
I1
F0.0
tp1087
a(I1
I0
F0.0
tp1088
a(I1
I-1
F0.0
tp1089
a(I0
I0
F0.0
tp1090
a(I0
I-1
F0.0
tp1091
a(I0
I1
F0.0
tp1092
as(F-0.062
F0.093
F60.0
F0.062
F-0.093
F60.0
tp1093
(lp1094
(I-1
I-1
F60.0
tp1095
a(I0
I1
F60.0
tp1096
a(I1
I1
F60.0
tp1097
a(I1
I0
F60.0
tp1098
a(I-1
I0
F60.0
tp1099
a(I0
I0
F60.0
tp1100
as(F-0.032
F0.155
F15.0
F0.032
F-0.155
F45.0
tp1101
(lp1102
(I1
I1
F30.0
tp1103
a(I-1
I0
F30.0
tp1104
a(I1
I0
F30.0
tp1105
a(I0
I-1
F30.0
tp1106
a(I0
I0
F30.0
tp1107
a(I-1
I-1
F30.0
tp1108
a(I0
I1
F30.0
tp1109
as(F-0.152
F0.088
F57.5
F0.152
F-0.088
F62.5
tp1110
(lp1111
(I0
I-1
F60.0
tp1112
a(I0
I1
F60.0
tp1113
a(I1
I1
F60.0
tp1114
a(I1
I0
F60.0
tp1115
a(I-1
I0
F60.0
tp1116
a(I0
I0
F60.0
tp1117
as(F-0.137
F0.037
F30.0
F0.137
F-0.037
F30.0
tp1118
(lp1119
(I1
I1
F30.0
tp1120
a(I-1
I0
F30.0
tp1121
a(I1
I0
F30.0
tp1122
a(I0
I-1
F30.0
tp1123
a(I0
I0
F30.0
tp1124
a(I2
I1
F30.0
tp1125
a(I-1
I-1
F30.0
tp1126
a(I0
I1
F30.0
tp1127
as(F-0.0
F0.25
F20.0
F0.0
F-0.25
F-20.0
tp1128
(lp1129
(I1
I1
F0.0
tp1130
a(I1
I0
F0.0
tp1131
a(I1
I-1
F0.0
tp1132
a(I0
I0
F0.0
tp1133
a(I0
I-1
F0.0
tp1134
a(I0
I1
F0.0
tp1135
as(F-0.087
F0.152
F27.5
F0.087
F-0.152
F32.5
tp1136
(lp1137
(I1
I1
F30.0
tp1138
a(I-1
I0
F30.0
tp1139
a(I1
I0
F30.0
tp1140
a(I0
I-1
F30.0
tp1141
a(I0
I0
F30.0
tp1142
a(I0
I1
F30.0
tp1143
as(F-0.105
F0.14
F-20.0
F0.105
F-0.14
F20.0
tp1144
(lp1145
(I1
I0
F0.0
tp1146
a(I-1
I-1
F0.0
tp1147
a(I0
I0
F0.0
tp1148
a(I0
I-1
F0.0
tp1149
a(I-1
I0
F0.0
tp1150
a(I0
I1
F0.0
tp1151
a(I2
I0
F0.0
tp1152
as(F-0.0
F0.2
F15.0
F0.0
F-0.2
F-15.0
tp1153
(lp1154
(I1
I1
F0.0
tp1155
a(I1
I0
F0.0
tp1156
a(I1
I-1
F0.0
tp1157
a(I0
I0
F0.0
tp1158
a(I0
I-1
F0.0
tp1159
a(I-1
I0
F0.0
tp1160
a(I0
I1
F0.0
tp1161
as(F-0.05
F0.087
F37.5
F0.05
F-0.087
F22.5
tp1162
(lp1163
(I1
I1
F30.0
tp1164
a(I-1
I0
F30.0
tp1165
a(I1
I0
F30.0
tp1166
a(I0
I-1
F30.0
tp1167
a(I0
I0
F30.0
tp1168
a(I0
I1
F30.0
tp1169
as(F0.125
F0.1
F0.0
F-0.125
F-0.1
F0.0
tp1170
(lp1171
(I-1
I1
F0.0
tp1172
a(I1
I0
F0.0
tp1173
a(I1
I-1
F0.0
tp1174
a(I0
I0
F0.0
tp1175
a(I-1
I0
F0.0
tp1176
a(I-2
I0
F0.0
tp1177
a(I2
I0
F0.0
tp1178
as(F0.056
F0.183
F15.0
F-0.056
F-0.183
F45.0
tp1179
(lp1180
(I1
I1
F30.0
tp1181
a(I-1
I0
F30.0
tp1182
a(I1
I0
F30.0
tp1183
a(I0
I0
F30.0
tp1184
a(I2
I1
F30.0
tp1185
a(I-2
I-1
F30.0
tp1186
a(I-1
I-1
F30.0
tp1187
as(F-0.0
F0.1
F7.5
F0.0
F-0.1
F-7.5
tp1188
(lp1189
(I1
I0
F0.0
tp1190
a(I-1
I0
F0.0
tp1191
a(I0
I1
F0.0
tp1192
a(I0
I0
F0.0
tp1193
a(I0
I-1
F0.0
tp1194
as(F-0.117
F0.097
F45.0
F0.117
F-0.097
F75.0
tp1195
(lp1196
(I0
I-1
F60.0
tp1197
a(I1
I1
F60.0
tp1198
a(I-1
I0
F60.0
tp1199
a(I0
I1
F60.0
tp1200
a(I0
I0
F60.0
tp1201
as(F0.016
F0.142
F50.0
F-0.016
F-0.142
F10.0
tp1202
(lp1203
(I1
I1
F30.0
tp1204
a(I-1
I0
F30.0
tp1205
a(I1
I0
F30.0
tp1206
a(I0
I0
F30.0
tp1207
a(I2
I1
F30.0
tp1208
a(I0
I1
F30.0
tp1209
as(F-0.082
F0.143
F27.5
F0.082
F-0.143
F32.5
tp1210
(lp1211
(I1
I1
F30.0
tp1212
a(I-1
I0
F30.0
tp1213
a(I1
I0
F30.0
tp1214
a(I0
I-1
F30.0
tp1215
a(I0
I0
F30.0
tp1216
a(I-1
I-1
F30.0
tp1217
a(I0
I1
F30.0
tp1218
as(F-0.112
F0.007
F60.0
F0.112
F-0.007
F60.0
tp1219
(lp1220
(I0
I-1
F60.0
tp1221
a(I1
I0
F60.0
tp1222
a(I1
I1
F60.0
tp1223
a(I0
I1
F60.0
tp1224
a(I0
I0
F60.0
tp1225
as(F-0.175
F0.078
F47.5
F0.175
F-0.078
F72.5
tp1226
(lp1227
(I0
I-1
F60.0
tp1228
a(I-1
I-1
F60.0
tp1229
a(I0
I1
F60.0
tp1230
a(I1
I1
F60.0
tp1231
a(I1
I0
F60.0
tp1232
a(I-1
I0
F60.0
tp1233
a(I0
I0
F60.0
tp1234
as(F-0.085
F0.188
F10.0
F0.085
F-0.188
F50.0
tp1235
(lp1236
(I1
I1
F30.0
tp1237
a(I-1
I0
F30.0
tp1238
a(I1
I0
F30.0
tp1239
a(I0
I-1
F30.0
tp1240
a(I0
I0
F30.0
tp1241
a(I-1
I-1
F30.0
tp1242
a(I0
I1
F30.0
tp1243
as(F0.15
F0.1
F0.0
F-0.15
F-0.1
F0.0
tp1244
(lp1245
(I-1
I1
F0.0
tp1246
a(I1
I0
F0.0
tp1247
a(I1
I-1
F0.0
tp1248
a(I0
I0
F0.0
tp1249
a(I-1
I0
F0.0
tp1250
a(I-2
I0
F0.0
tp1251
a(I2
I0
F0.0
tp1252
as(F-0.155
F0.112
F47.5
F0.155
F-0.112
F72.5
tp1253
(lp1254
(I0
I-1
F60.0
tp1255
a(I1
I0
F60.0
tp1256
a(I-1
I0
F60.0
tp1257
a(I0
I1
F60.0
tp1258
a(I0
I0
F60.0
tp1259
as.